; Function Attrs: mustprogress uwtable
define noundef ptr @_ZN6google8protobuf8internal17UnknownFieldParseEjPNSt7__cxx1112basic_stringIcSt11char_traitsIcESaIcEEEPKcPNS1_12ParseContextE(i32 noundef %0, ptr noundef %1, ptr noundef %2, ptr noundef %3) local_unnamed_addr #3 {
  %5 = alloca %"class.google::protobuf::internal::UnknownFieldLiteParserHelper", align 8
  call void @llvm.lifetime.start.p0(i64 8, ptr nonnull %5) #15
  store ptr %1, ptr %5, align 8, !tbaa !50
  %6 = zext i32 %0 to i64
  %7 = call noundef ptr @_ZN6google8protobuf8internal11FieldParserINS1_28UnknownFieldLiteParserHelperEEEPKcmRT_S5_PNS1_12ParseContextE(i64 noundef %6, ptr noundef nonnull align 8 dereferenceable(8) %5, ptr noundef %2, ptr noundef %3)
  call void @llvm.lifetime.end.p0(i64 8, ptr nonnull %5) #15
  ret ptr %7
}